Certificate:
    Data:
        Version: 3 (0x2)
        Serial Number:
            54:db:db:ac:79:4b:f4:77:33:75:28:fe:8f:59:35:b0:b7:7b:27:5c
        Signature Algorithm: sha256WithRSAEncryption
        Issuer: CN = Easy-RSA CA
        Validity
            Not Before: Aug 16 11:42:41 2023 GMT
            Not After : Jul 23 11:42:41 2123 GMT
        Subject: CN = Easy-RSA CA
        Subject Public Key Info:
            Public Key Algorithm: rsaEncryption
                Public-Key: (2048 bit)
                Modulus:
                    00:df:f6:1c:10:e2:91:77:a8:2a:ea:31:8c:a9:b4:
                    36:13:8e:72:ec:77:69:0c:2d:aa:7b:fe:bd:92:30:
                    3b:fc:1f:7d:e4:f2:c7:01:9a:f7:7f:aa:f3:44:bf:
                    8f:c4:f1:3e:ba:46:c5:49:a6:17:99:5f:73:01:27:
                    4d:2c:99:cf:0e:18:70:40:24:88:f5:29:60:ba:26:
                    8f:14:54:e0:fe:86:81:2c:63:c0:47:7c:ca:03:de:
                    f0:1d:f9:32:23:a1:f5:c3:4c:f3:32:a6:56:00:35:
                    b7:be:85:5e:cc:03:d4:d4:cd:b4:88:b7:f5:f0:7b:
                    00:75:5f:77:9c:c8:4f:cb:c0:13:67:ef:36:46:14:
                    5d:d6:02:7a:0b:36:90:bd:af:45:1b:9e:4d:cd:eb:
                    1a:92:ca:e1:24:d5:d2:cb:02:d5:8d:e2:9c:37:b0:
                    0c:8b:60:4e:51:47:97:18:5c:34:ca:d4:a2:9d:0a:
                    33:b9:3d:e4:86:25:97:ee:87:de:e1:50:d0:d5:a2:
                    8a:13:10:6b:e5:3a:ab:1a:9f:f4:27:01:a9:e9:f7:
                    9a:91:b5:fd:14:c8:a8:28:19:df:8f:98:8d:3f:eb:
                    94:2c:54:15:52:09:7e:99:a8:2c:d8:dd:d0:e9:fe:
                    12:a4:45:1b:10:8f:59:a5:92:54:12:ca:4c:84:2a:
                    45:27
                Exponent: 65537 (0x10001)
        X509v3 extensions:
            X509v3 Subject Key Identifier: 
                8B:C7:AF:DD:1B:28:70:F2:B2:A1:35:CB:F8:73:C1:D6:2B:E7:87:C8
            X509v3 Authority Key Identifier: 
                8B:C7:AF:DD:1B:28:70:F2:B2:A1:35:CB:F8:73:C1:D6:2B:E7:87:C8
            X509v3 Basic Constraints: 
                CA:FALSE
            X509v3 Subject Alternative Name: 
                DNS:localhost
    Signature Algorithm: sha256WithRSAEncryption
    Signature Value:
        cf:67:18:15:2b:cb:b7:64:0c:14:33:81:da:c6:f0:b9:70:48:
        ae:80:4a:55:8d:6a:b9:57:41:a7:af:0f:cf:df:21:21:b6:52:
        07:34:f0:7a:9f:93:dc:34:bf:11:58:e4:7d:32:b3:ef:19:8d:
        52:b8:ea:4b:a1:1d:f5:44:0f:4a:78:36:b5:d4:3a:07:fc:e7:
        2f:51:98:d0:3b:da:4c:76:00:ba:18:a7:cb:f2:37:f0:1c:90:
        84:7f:29:26:b9:88:76:1d:1e:8a:ec:7a:f9:e3:e4:52:6f:84:
        8d:06:5c:c6:d8:b1:29:b6:91:23:6e:ba:1a:0d:3c:d5:ce:10:
        c0:78:69:d2:60:a5:d7:be:a2:f7:dd:e3:62:4e:ef:22:8e:64:
        93:5b:b2:02:6b:86:27:f4:2a:c1:fe:33:3a:26:bd:61:1c:a9:
        b4:b0:23:ad:be:a2:93:a3:f9:d3:91:a2:25:27:90:00:b3:8e:
        05:68:93:57:5b:4e:7c:3f:a7:8a:a3:60:03:11:6a:00:34:aa:
        30:3b:dc:9b:39:2b:93:3d:b7:5b:5f:09:1c:4b:8b:3c:eb:58:
        9c:59:2f:16:11:a8:b4:f6:19:2c:fa:9a:5f:b0:f6:48:51:db:
        12:11:1d:f3:76:dc:60:d8:32:c3:e7:fb:7a:32:52:e7:be:6f:
        11:f3:ce:eb
-----BEGIN CERTIFICATE-----
MIIDHzCCAgegAwIBAgIUVNvbrHlL9HczdSj+j1k1sLd7J1wwDQYJKoZIhvcNAQEL
BQAwFjEUMBIGA1UEAwwLRWFzeS1SU0EgQ0EwIBcNMjMwODE2MTE0MjQxWhgPMjEy
MzA3MjMxMTQyNDFaMBYxFDASBgNVBAMMC0Vhc3ktUlNBIENBMIIBIjANBgkqhkiG
9w0BAQEFAAOCAQ8AMIIBCgKCAQEA3/YcEOKRd6gq6jGMqbQ2E45y7HdpDC2qe/69
kjA7/B995PLHAZr3f6rzRL+PxPE+ukbFSaYXmV9zASdNLJnPDhhwQCSI9SlguiaP
FFTg/oaBLGPAR3zKA97wHfkyI6H1w0zzMqZWADW3voVezAPU1M20iLf18HsAdV93
nMhPy8ATZ+82RhRd1gJ6CzaQva9FG55NzesaksrhJNXSywLVjeKcN7AMi2BOUUeX
GFw0ytSinQozuT3khiWX7ofe4VDQ1aKKExBr5TqrGp/0JwGp6feakbX9FMioKBnf
j5iNP+uULFQVUgl+mags2N3Q6f4SpEUbEI9ZpZJUEspMhCpFJwIDAQABo2MwYTAd
BgNVHQ4EFgQUi8ev3RsocPKyoTXL+HPB1ivnh8gwHwYDVR0jBBgwFoAUi8ev3Rso
cPKyoTXL+HPB1ivnh8gwCQYDVR0TBAIwADAUBgNVHREEDTALgglsb2NhbGhvc3Qw
DQYJKoZIhvcNAQELBQADggEBAM9nGBUry7dkDBQzgdrG8LlwSK6ASlWNarlXQaev
D8/fISG2Ugc08Hqfk9w0vxFY5H0ys+8ZjVK46kuhHfVED0p4NrXUOgf85y9RmNA7
2kx2ALoYp8vyN/AckIR/KSa5iHYdHorsevnj5FJvhI0GXMbYsSm2kSNuuhoNPNXO
EMB4adJgpde+ovfd42JO7yKOZJNbsgJrhif0KsH+MzomvWEcqbSwI62+opOj+dOR
oiUnkACzjgVok1dbTnw/p4qjYAMRagA0qjA73Js5K5M9t1tfCRxLizzrWJxZLxYR
qLT2GSz6ml+w9khR2xIRHfN23GDYMsPn+3oyUue+bxHzzus=
-----END CERTIFICATE-----
